ARM GAS  C:\Users\Thee\AppData\Local\Temp\ccA3xWfz.s 			page 1


   1              		.cpu cortex-m3
   2              		.eabi_attribute 20, 1
   3              		.eabi_attribute 21, 1
   4              		.eabi_attribute 23, 3
   5              		.eabi_attribute 24, 1
   6              		.eabi_attribute 25, 1
   7              		.eabi_attribute 26, 1
   8              		.eabi_attribute 30, 1
   9              		.eabi_attribute 34, 1
  10              		.eabi_attribute 18, 4
  11              		.file	"dma.c"
  12              		.text
  13              	.Ltext0:
  14              		.cfi_sections	.debug_frame
  15              		.section	.text.MX_DMA_Init,"ax",%progbits
  16              		.align	1
  17              		.global	MX_DMA_Init
  18              		.syntax unified
  19              		.thumb
  20              		.thumb_func
  21              		.fpu softvfp
  23              	MX_DMA_Init:
  24              	.LFB65:
  25              		.file 1 "Src/dma.c"
   1:Src/dma.c     **** /**
   2:Src/dma.c     ****   ******************************************************************************
   3:Src/dma.c     ****   * File Name          : dma.c
   4:Src/dma.c     ****   * Description        : This file provides code for the configuration
   5:Src/dma.c     ****   *                      of all the requested memory to memory DMA transfers.
   6:Src/dma.c     ****   ******************************************************************************
   7:Src/dma.c     ****   * @attention
   8:Src/dma.c     ****   *
   9:Src/dma.c     ****   * <h2><center>&copy; Copyright (c) 2020 STMicroelectronics.
  10:Src/dma.c     ****   * All rights reserved.</center></h2>
  11:Src/dma.c     ****   *
  12:Src/dma.c     ****   * This software component is licensed by ST under BSD 3-Clause license,
  13:Src/dma.c     ****   * the "License"; You may not use this file except in compliance with the
  14:Src/dma.c     ****   * License. You may obtain a copy of the License at:
  15:Src/dma.c     ****   *                        opensource.org/licenses/BSD-3-Clause
  16:Src/dma.c     ****   *
  17:Src/dma.c     ****   ******************************************************************************
  18:Src/dma.c     ****   */
  19:Src/dma.c     **** 
  20:Src/dma.c     **** /* Includes ------------------------------------------------------------------*/
  21:Src/dma.c     **** #include "dma.h"
  22:Src/dma.c     **** 
  23:Src/dma.c     **** /* USER CODE BEGIN 0 */
  24:Src/dma.c     **** #include "gpio.h"
  25:Src/dma.c     **** 
  26:Src/dma.c     **** /* USER CODE END 0 */
  27:Src/dma.c     **** 
  28:Src/dma.c     **** /*----------------------------------------------------------------------------*/
  29:Src/dma.c     **** /* Configure DMA                                                              */
  30:Src/dma.c     **** /*----------------------------------------------------------------------------*/
  31:Src/dma.c     **** 
  32:Src/dma.c     **** /* USER CODE BEGIN 1 */
  33:Src/dma.c     **** 
ARM GAS  C:\Users\Thee\AppData\Local\Temp\ccA3xWfz.s 			page 2


  34:Src/dma.c     **** /* USER CODE END 1 */
  35:Src/dma.c     **** DMA_HandleTypeDef hdma_memtomem_dma1_channel1;
  36:Src/dma.c     **** 
  37:Src/dma.c     **** /** 
  38:Src/dma.c     ****   * Enable DMA controller clock
  39:Src/dma.c     ****   * Configure DMA for memory to memory transfers
  40:Src/dma.c     ****   *   hdma_memtomem_dma1_channel1
  41:Src/dma.c     ****   */
  42:Src/dma.c     **** void MX_DMA_Init(void)
  43:Src/dma.c     **** {
  26              		.loc 1 43 0
  27              		.cfi_startproc
  28              		@ args = 0, pretend = 0, frame = 8
  29              		@ frame_needed = 0, uses_anonymous_args = 0
  30 0000 00B5     		push	{lr}
  31              	.LCFI0:
  32              		.cfi_def_cfa_offset 4
  33              		.cfi_offset 14, -4
  34 0002 83B0     		sub	sp, sp, #12
  35              	.LCFI1:
  36              		.cfi_def_cfa_offset 16
  37              	.LBB2:
  44:Src/dma.c     ****     /* DMA controller clock enable */
  45:Src/dma.c     ****     __HAL_RCC_DMA1_CLK_ENABLE();
  38              		.loc 1 45 0
  39 0004 134B     		ldr	r3, .L5
  40 0006 5A69     		ldr	r2, [r3, #20]
  41 0008 42F00102 		orr	r2, r2, #1
  42 000c 5A61     		str	r2, [r3, #20]
  43 000e 5B69     		ldr	r3, [r3, #20]
  44 0010 03F00103 		and	r3, r3, #1
  45 0014 0193     		str	r3, [sp, #4]
  46 0016 019B     		ldr	r3, [sp, #4]
  47              	.LBE2:
  46:Src/dma.c     **** 
  47:Src/dma.c     ****     /* Configure DMA request hdma_memtomem_dma1_channel1 on DMA1_Channel1 */
  48:Src/dma.c     ****     hdma_memtomem_dma1_channel1.Instance = DMA1_Channel1;
  48              		.loc 1 48 0
  49 0018 0F48     		ldr	r0, .L5+4
  50 001a 104B     		ldr	r3, .L5+8
  51 001c 0360     		str	r3, [r0]
  49:Src/dma.c     ****     hdma_memtomem_dma1_channel1.Init.Direction = DMA_MEMORY_TO_MEMORY;
  52              		.loc 1 49 0
  53 001e 4FF48043 		mov	r3, #16384
  54 0022 4360     		str	r3, [r0, #4]
  50:Src/dma.c     ****     hdma_memtomem_dma1_channel1.Init.PeriphInc = DMA_PINC_ENABLE;
  55              		.loc 1 50 0
  56 0024 4023     		movs	r3, #64
  57 0026 8360     		str	r3, [r0, #8]
  51:Src/dma.c     ****     hdma_memtomem_dma1_channel1.Init.MemInc = DMA_MINC_ENABLE;
  58              		.loc 1 51 0
  59 0028 8023     		movs	r3, #128
  60 002a C360     		str	r3, [r0, #12]
  52:Src/dma.c     ****     hdma_memtomem_dma1_channel1.Init.PeriphDataAlignment = DMA_PDATAALIGN_WORD;
  61              		.loc 1 52 0
  62 002c 4FF40073 		mov	r3, #512
  63 0030 0361     		str	r3, [r0, #16]
ARM GAS  C:\Users\Thee\AppData\Local\Temp\ccA3xWfz.s 			page 3


  53:Src/dma.c     ****     hdma_memtomem_dma1_channel1.Init.MemDataAlignment = DMA_MDATAALIGN_WORD;
  64              		.loc 1 53 0
  65 0032 4FF40063 		mov	r3, #2048
  66 0036 4361     		str	r3, [r0, #20]
  54:Src/dma.c     ****     hdma_memtomem_dma1_channel1.Init.Mode = DMA_NORMAL;
  67              		.loc 1 54 0
  68 0038 0023     		movs	r3, #0
  69 003a 8361     		str	r3, [r0, #24]
  55:Src/dma.c     ****     hdma_memtomem_dma1_channel1.Init.Priority = DMA_PRIORITY_MEDIUM;
  70              		.loc 1 55 0
  71 003c 4FF48053 		mov	r3, #4096
  72 0040 C361     		str	r3, [r0, #28]
  56:Src/dma.c     ****     if (HAL_DMA_Init(&hdma_memtomem_dma1_channel1) != HAL_OK)
  73              		.loc 1 56 0
  74 0042 FFF7FEFF 		bl	HAL_DMA_Init
  75              	.LVL0:
  76 0046 10B9     		cbnz	r0, .L4
  77              	.L1:
  57:Src/dma.c     ****     {
  58:Src/dma.c     ****         Error_Handler();
  59:Src/dma.c     ****     }
  60:Src/dma.c     **** }
  78              		.loc 1 60 0
  79 0048 03B0     		add	sp, sp, #12
  80              	.LCFI2:
  81              		.cfi_remember_state
  82              		.cfi_def_cfa_offset 4
  83              		@ sp needed
  84 004a 5DF804FB 		ldr	pc, [sp], #4
  85              	.L4:
  86              	.LCFI3:
  87              		.cfi_restore_state
  58:Src/dma.c     ****     }
  88              		.loc 1 58 0
  89 004e FFF7FEFF 		bl	Error_Handler
  90              	.LVL1:
  91              		.loc 1 60 0
  92 0052 F9E7     		b	.L1
  93              	.L6:
  94              		.align	2
  95              	.L5:
  96 0054 00100240 		.word	1073876992
  97 0058 00000000 		.word	hdma_memtomem_dma1_channel1
  98 005c 08000240 		.word	1073872904
  99              		.cfi_endproc
 100              	.LFE65:
 102              		.comm	hdma_memtomem_dma1_channel1,68,4
 103              		.text
 104              	.Letext0:
 105              		.file 2 "d:\\gcc-arm-none-eabi-8-2018-q4-major-win32\\arm-none-eabi\\include\\machine\\_default_ty
 106              		.file 3 "d:\\gcc-arm-none-eabi-8-2018-q4-major-win32\\arm-none-eabi\\include\\sys\\_stdint.h"
 107              		.file 4 "Drivers/CMSIS/Include/core_cm3.h"
 108              		.file 5 "Drivers/CMSIS/Device/ST/STM32F1xx/Include/system_stm32f1xx.h"
 109              		.file 6 "Drivers/CMSIS/Device/ST/STM32F1xx/Include/stm32f103xe.h"
 110              		.file 7 "Drivers/STM32F1xx_HAL_Driver/Inc/stm32f1xx_hal_def.h"
 111              		.file 8 "Drivers/STM32F1xx_HAL_Driver/Inc/stm32f1xx_hal_dma.h"
 112              		.file 9 "Drivers/STM32F1xx_HAL_Driver/Inc/stm32f1xx_hal.h"
ARM GAS  C:\Users\Thee\AppData\Local\Temp\ccA3xWfz.s 			page 4


 113              		.file 10 "Inc/dma.h"
 114              		.file 11 "Inc/main.h"
ARM GAS  C:\Users\Thee\AppData\Local\Temp\ccA3xWfz.s 			page 5

