ARM GAS  C:\Users\Thee\AppData\Local\Temp\ccsBUm0v.s 			page 1


   1              		.cpu cortex-m3
   2              		.eabi_attribute 20, 1
   3              		.eabi_attribute 21, 1
   4              		.eabi_attribute 23, 3
   5              		.eabi_attribute 24, 1
   6              		.eabi_attribute 25, 1
   7              		.eabi_attribute 26, 1
   8              		.eabi_attribute 30, 1
   9              		.eabi_attribute 34, 1
  10              		.eabi_attribute 18, 4
  11              		.file	"main.c"
  12              		.text
  13              	.Ltext0:
  14              		.cfi_sections	.debug_frame
  15              		.section	.text.Delay,"ax",%progbits
  16              		.align	1
  17              		.syntax unified
  18              		.thumb
  19              		.thumb_func
  20              		.fpu softvfp
  22              	Delay:
  23              	.LFB67:
  24              		.file 1 "Src/main.c"
   1:Src/main.c    **** /* USER CODE BEGIN Header */
   2:Src/main.c    **** /**
   3:Src/main.c    ****   ******************************************************************************
   4:Src/main.c    ****   * @file           : main.c
   5:Src/main.c    ****   * @brief          : Main program body
   6:Src/main.c    ****   ******************************************************************************
   7:Src/main.c    ****   * @attention
   8:Src/main.c    ****   *
   9:Src/main.c    ****   * <h2><center>&copy; Copyright (c) 2020 STMicroelectronics.
  10:Src/main.c    ****   * All rights reserved.</center></h2>
  11:Src/main.c    ****   *
  12:Src/main.c    ****   * This software component is licensed by ST under BSD 3-Clause license,
  13:Src/main.c    ****   * the "License"; You may not use this file except in compliance with the
  14:Src/main.c    ****   * License. You may obtain a copy of the License at:
  15:Src/main.c    ****   *                        opensource.org/licenses/BSD-3-Clause
  16:Src/main.c    ****   *
  17:Src/main.c    ****   ******************************************************************************
  18:Src/main.c    ****   */
  19:Src/main.c    **** /* USER CODE END Header */
  20:Src/main.c    **** 
  21:Src/main.c    **** /* Includes ------------------------------------------------------------------*/
  22:Src/main.c    **** #include "main.h"
  23:Src/main.c    **** #include "dma.h"
  24:Src/main.c    **** #include "gpio.h"
  25:Src/main.c    **** 
  26:Src/main.c    **** /* Private includes ----------------------------------------------------------*/
  27:Src/main.c    **** /* USER CODE BEGIN Includes */
  28:Src/main.c    **** 
  29:Src/main.c    **** /* USER CODE END Includes */
  30:Src/main.c    **** 
  31:Src/main.c    **** /* Private typedef -----------------------------------------------------------*/
  32:Src/main.c    **** /* USER CODE BEGIN PTD */
  33:Src/main.c    **** 
  34:Src/main.c    **** /* USER CODE END PTD */
ARM GAS  C:\Users\Thee\AppData\Local\Temp\ccsBUm0v.s 			page 2


  35:Src/main.c    **** 
  36:Src/main.c    **** /* Private define ------------------------------------------------------------*/
  37:Src/main.c    **** /* USER CODE BEGIN PD */
  38:Src/main.c    **** /* USER CODE END PD */
  39:Src/main.c    **** 
  40:Src/main.c    **** /* Private macro -------------------------------------------------------------*/
  41:Src/main.c    **** /* USER CODE BEGIN PM */
  42:Src/main.c    **** 
  43:Src/main.c    **** /* USER CODE END PM */
  44:Src/main.c    **** 
  45:Src/main.c    **** /* Private variables ---------------------------------------------------------*/
  46:Src/main.c    **** 
  47:Src/main.c    **** /* USER CODE BEGIN PV */
  48:Src/main.c    **** 
  49:Src/main.c    **** /* USER CODE END PV */
  50:Src/main.c    **** 
  51:Src/main.c    **** /* Private function prototypes -----------------------------------------------*/
  52:Src/main.c    **** void SystemClock_Config(void);
  53:Src/main.c    **** /* USER CODE BEGIN PFP */
  54:Src/main.c    **** 
  55:Src/main.c    **** /* USER CODE END PFP */
  56:Src/main.c    **** 
  57:Src/main.c    **** /* Private user code ---------------------------------------------------------*/
  58:Src/main.c    **** /* USER CODE BEGIN 0 */
  59:Src/main.c    **** #define DMA_STREAM DMA1_Channel6
  60:Src/main.c    **** #define DMA_STREAM_CLOCK() __HAL_RCC_DMA1_CLK_ENABLE();
  61:Src/main.c    **** #define BUFFER_SIZE 32
  62:Src/main.c    **** 
  63:Src/main.c    **** /* 定义aSRC_Const_Buffer数组作为DMA传输数据源
  64:Src/main.c    ****   const关键字将aSRC_Const_Buffer数组变量定义为常量类型 */
  65:Src/main.c    **** const uint32_t aSRC_Const_Buffer[BUFFER_SIZE] = {
  66:Src/main.c    ****     0x01020304, 0x05060708, 0x090A0B0C, 0x0D0E0F10,
  67:Src/main.c    ****     0x11121314, 0x15161718, 0x191A1B1C, 0x1D1E1F20,
  68:Src/main.c    ****     0x21222324, 0x25262728, 0x292A2B2C, 0x2D2E2F30,
  69:Src/main.c    ****     0x31323334, 0x35363738, 0x393A3B3C, 0x3D3E3F40,
  70:Src/main.c    ****     0x41424344, 0x45464748, 0x494A4B4C, 0x4D4E4F50,
  71:Src/main.c    ****     0x51525354, 0x55565758, 0x595A5B5C, 0x5D5E5F60,
  72:Src/main.c    ****     0x61626364, 0x65666768, 0x696A6B6C, 0x6D6E6F70,
  73:Src/main.c    ****     0x71727374, 0x75767778, 0x797A7B7C, 0x7D7E7F80};
  74:Src/main.c    **** /* 定义DMA传输目标存储器 */
  75:Src/main.c    **** uint32_t aDST_Buffer[BUFFER_SIZE];
  76:Src/main.c    **** 
  77:Src/main.c    **** static void Delay(__IO uint32_t nCount);
  78:Src/main.c    **** uint8_t Buffercmp(const uint32_t *pBuffer, uint32_t *pBuffer1, uint16_t BufferLength);
  79:Src/main.c    **** /* USER CODE END 0 */
  80:Src/main.c    **** 
  81:Src/main.c    **** /**
  82:Src/main.c    ****   * @brief  The application entry point.
  83:Src/main.c    ****   * @retval int
  84:Src/main.c    ****   */
  85:Src/main.c    **** int main(void)
  86:Src/main.c    **** {
  87:Src/main.c    ****     /* USER CODE BEGIN 1 */
  88:Src/main.c    ****     uint8_t TransferStatus;
  89:Src/main.c    ****     HAL_StatusTypeDef DMA_status = HAL_ERROR;
  90:Src/main.c    ****     /* USER CODE END 1 */
  91:Src/main.c    **** 
ARM GAS  C:\Users\Thee\AppData\Local\Temp\ccsBUm0v.s 			page 3


  92:Src/main.c    ****     /* MCU Configuration--------------------------------------------------------*/
  93:Src/main.c    **** 
  94:Src/main.c    ****     /* Reset of all peripherals, Initializes the Flash interface and the Systick. */
  95:Src/main.c    ****     HAL_Init();
  96:Src/main.c    **** 
  97:Src/main.c    ****     /* USER CODE BEGIN Init */
  98:Src/main.c    **** 
  99:Src/main.c    ****     /* USER CODE END Init */
 100:Src/main.c    **** 
 101:Src/main.c    ****     /* Configure the system clock */
 102:Src/main.c    ****     SystemClock_Config();
 103:Src/main.c    **** 
 104:Src/main.c    ****     /* USER CODE BEGIN SysInit */
 105:Src/main.c    **** 
 106:Src/main.c    ****     /* USER CODE END SysInit */
 107:Src/main.c    **** 
 108:Src/main.c    ****     /* Initialize all configured peripherals */
 109:Src/main.c    ****     MX_GPIO_Init();
 110:Src/main.c    ****     MX_DMA_Init();
 111:Src/main.c    ****     /* USER CODE BEGIN 2 */
 112:Src/main.c    ****     DMA_status = HAL_DMA_Start(&hdma_memtomem_dma1_channel1, (uint32_t)aSRC_Const_Buffer, (uint32_t
 113:Src/main.c    **** 
 114:Src/main.c    ****     /* 判断DMA状态 */
 115:Src/main.c    ****     if (DMA_status != HAL_OK)
 116:Src/main.c    ****     {
 117:Src/main.c    ****         /* DMA出错就让程序运行下面循环：RGB彩色灯闪烁 */
 118:Src/main.c    ****         while (1)
 119:Src/main.c    ****         {
 120:Src/main.c    ****             LED1_ON;
 121:Src/main.c    ****             Delay(0xFFFFFF);
 122:Src/main.c    ****             LED1_TOGGLE;
 123:Src/main.c    ****             Delay(0xFFFFFF);
 124:Src/main.c    ****         }
 125:Src/main.c    ****     }
 126:Src/main.c    **** 
 127:Src/main.c    ****     while (__HAL_DMA_GET_FLAG(&hdma_memtomem_dma1_channel1, DMA_FLAG_TC1) == RESET)
 128:Src/main.c    ****     {
 129:Src/main.c    ****     }
 130:Src/main.c    ****     //LED1_ON;
 131:Src/main.c    ****     TransferStatus = Buffercmp(aSRC_Const_Buffer, aDST_Buffer, 32);
 132:Src/main.c    **** 
 133:Src/main.c    ****     if (TransferStatus == 0)
 134:Src/main.c    ****     {
 135:Src/main.c    ****         LED1_ON;
 136:Src/main.c    ****     }
 137:Src/main.c    ****     else
 138:Src/main.c    ****     {
 139:Src/main.c    ****         LED2_ON;
 140:Src/main.c    ****     }
 141:Src/main.c    **** 
 142:Src/main.c    ****     /* USER CODE END 2 */
 143:Src/main.c    **** 
 144:Src/main.c    ****     /* Infinite loop */
 145:Src/main.c    ****     /* USER CODE BEGIN WHILE */
 146:Src/main.c    ****     while (1)
 147:Src/main.c    ****     {
 148:Src/main.c    ****         /* USER CODE END WHILE */
ARM GAS  C:\Users\Thee\AppData\Local\Temp\ccsBUm0v.s 			page 4


 149:Src/main.c    ****         // LED1_TOGGLE;
 150:Src/main.c    ****         // HAL_Delay(1000);
 151:Src/main.c    ****         /* USER CODE BEGIN 3 */
 152:Src/main.c    ****     }
 153:Src/main.c    ****     /* USER CODE END 3 */
 154:Src/main.c    **** }
 155:Src/main.c    **** 
 156:Src/main.c    **** /**
 157:Src/main.c    ****   * @brief System Clock Configuration
 158:Src/main.c    ****   * @retval None
 159:Src/main.c    ****   */
 160:Src/main.c    **** void SystemClock_Config(void)
 161:Src/main.c    **** {
 162:Src/main.c    ****     RCC_OscInitTypeDef RCC_OscInitStruct = {0};
 163:Src/main.c    ****     RCC_ClkInitTypeDef RCC_ClkInitStruct = {0};
 164:Src/main.c    **** 
 165:Src/main.c    ****     /** Initializes the CPU, AHB and APB busses clocks 
 166:Src/main.c    ****   */
 167:Src/main.c    ****     RCC_OscInitStruct.OscillatorType = RCC_OSCILLATORTYPE_HSE;
 168:Src/main.c    ****     RCC_OscInitStruct.HSEState = RCC_HSE_ON;
 169:Src/main.c    ****     RCC_OscInitStruct.HSEPredivValue = RCC_HSE_PREDIV_DIV1;
 170:Src/main.c    ****     RCC_OscInitStruct.HSIState = RCC_HSI_ON;
 171:Src/main.c    ****     RCC_OscInitStruct.PLL.PLLState = RCC_PLL_ON;
 172:Src/main.c    ****     RCC_OscInitStruct.PLL.PLLSource = RCC_PLLSOURCE_HSE;
 173:Src/main.c    ****     RCC_OscInitStruct.PLL.PLLMUL = RCC_PLL_MUL9;
 174:Src/main.c    ****     if (HAL_RCC_OscConfig(&RCC_OscInitStruct) != HAL_OK)
 175:Src/main.c    ****     {
 176:Src/main.c    ****         Error_Handler();
 177:Src/main.c    ****     }
 178:Src/main.c    ****     /** Initializes the CPU, AHB and APB busses clocks 
 179:Src/main.c    ****   */
 180:Src/main.c    ****     RCC_ClkInitStruct.ClockType = RCC_CLOCKTYPE_HCLK | RCC_CLOCKTYPE_SYSCLK | RCC_CLOCKTYPE_PCLK1 |
 181:Src/main.c    ****     RCC_ClkInitStruct.SYSCLKSource = RCC_SYSCLKSOURCE_PLLCLK;
 182:Src/main.c    ****     RCC_ClkInitStruct.AHBCLKDivider = RCC_SYSCLK_DIV1;
 183:Src/main.c    ****     RCC_ClkInitStruct.APB1CLKDivider = RCC_HCLK_DIV2;
 184:Src/main.c    ****     RCC_ClkInitStruct.APB2CLKDivider = RCC_HCLK_DIV1;
 185:Src/main.c    **** 
 186:Src/main.c    ****     if (HAL_RCC_ClockConfig(&RCC_ClkInitStruct, FLASH_LATENCY_2) != HAL_OK)
 187:Src/main.c    ****     {
 188:Src/main.c    ****         Error_Handler();
 189:Src/main.c    ****     }
 190:Src/main.c    **** }
 191:Src/main.c    **** 
 192:Src/main.c    **** /* USER CODE BEGIN 4 */
 193:Src/main.c    **** static void Delay(__IO uint32_t nCount)
 194:Src/main.c    **** {
  25              		.loc 1 194 0
  26              		.cfi_startproc
  27              		@ args = 0, pretend = 0, frame = 8
  28              		@ frame_needed = 0, uses_anonymous_args = 0
  29              		@ link register save eliminated.
  30              	.LVL0:
  31 0000 82B0     		sub	sp, sp, #8
  32              	.LCFI0:
  33              		.cfi_def_cfa_offset 8
  34 0002 0190     		str	r0, [sp, #4]
 195:Src/main.c    ****     for (; nCount != 0; nCount--)
ARM GAS  C:\Users\Thee\AppData\Local\Temp\ccsBUm0v.s 			page 5


  35              		.loc 1 195 0
  36 0004 02E0     		b	.L2
  37              	.L3:
  38              		.loc 1 195 0 is_stmt 0 discriminator 2
  39 0006 019B     		ldr	r3, [sp, #4]
  40 0008 013B     		subs	r3, r3, #1
  41 000a 0193     		str	r3, [sp, #4]
  42              	.L2:
  43              		.loc 1 195 0 discriminator 1
  44 000c 019B     		ldr	r3, [sp, #4]
  45 000e 002B     		cmp	r3, #0
  46 0010 F9D1     		bne	.L3
 196:Src/main.c    ****         ;
 197:Src/main.c    **** }
  47              		.loc 1 197 0 is_stmt 1
  48 0012 02B0     		add	sp, sp, #8
  49              	.LCFI1:
  50              		.cfi_def_cfa_offset 0
  51              		@ sp needed
  52 0014 7047     		bx	lr
  53              		.cfi_endproc
  54              	.LFE67:
  56              		.section	.text.SystemClock_Config,"ax",%progbits
  57              		.align	1
  58              		.global	SystemClock_Config
  59              		.syntax unified
  60              		.thumb
  61              		.thumb_func
  62              		.fpu softvfp
  64              	SystemClock_Config:
  65              	.LFB66:
 161:Src/main.c    ****     RCC_OscInitTypeDef RCC_OscInitStruct = {0};
  66              		.loc 1 161 0
  67              		.cfi_startproc
  68              		@ args = 0, pretend = 0, frame = 64
  69              		@ frame_needed = 0, uses_anonymous_args = 0
  70 0000 30B5     		push	{r4, r5, lr}
  71              	.LCFI2:
  72              		.cfi_def_cfa_offset 12
  73              		.cfi_offset 4, -12
  74              		.cfi_offset 5, -8
  75              		.cfi_offset 14, -4
  76 0002 91B0     		sub	sp, sp, #68
  77              	.LCFI3:
  78              		.cfi_def_cfa_offset 80
 162:Src/main.c    ****     RCC_ClkInitTypeDef RCC_ClkInitStruct = {0};
  79              		.loc 1 162 0
  80 0004 0024     		movs	r4, #0
  81 0006 0894     		str	r4, [sp, #32]
  82 0008 0994     		str	r4, [sp, #36]
  83 000a 0B94     		str	r4, [sp, #44]
  84 000c 0C94     		str	r4, [sp, #48]
 163:Src/main.c    **** 
  85              		.loc 1 163 0
  86 000e 0194     		str	r4, [sp, #4]
  87 0010 0294     		str	r4, [sp, #8]
  88 0012 0394     		str	r4, [sp, #12]
ARM GAS  C:\Users\Thee\AppData\Local\Temp\ccsBUm0v.s 			page 6


  89 0014 0494     		str	r4, [sp, #16]
  90 0016 0594     		str	r4, [sp, #20]
 167:Src/main.c    ****     RCC_OscInitStruct.HSEState = RCC_HSE_ON;
  91              		.loc 1 167 0
  92 0018 0122     		movs	r2, #1
  93 001a 0692     		str	r2, [sp, #24]
 168:Src/main.c    ****     RCC_OscInitStruct.HSEPredivValue = RCC_HSE_PREDIV_DIV1;
  94              		.loc 1 168 0
  95 001c 4FF48033 		mov	r3, #65536
  96 0020 0793     		str	r3, [sp, #28]
 170:Src/main.c    ****     RCC_OscInitStruct.PLL.PLLState = RCC_PLL_ON;
  97              		.loc 1 170 0
  98 0022 0A92     		str	r2, [sp, #40]
 171:Src/main.c    ****     RCC_OscInitStruct.PLL.PLLSource = RCC_PLLSOURCE_HSE;
  99              		.loc 1 171 0
 100 0024 0225     		movs	r5, #2
 101 0026 0D95     		str	r5, [sp, #52]
 172:Src/main.c    ****     RCC_OscInitStruct.PLL.PLLMUL = RCC_PLL_MUL9;
 102              		.loc 1 172 0
 103 0028 0E93     		str	r3, [sp, #56]
 173:Src/main.c    ****     if (HAL_RCC_OscConfig(&RCC_OscInitStruct) != HAL_OK)
 104              		.loc 1 173 0
 105 002a 4FF4E013 		mov	r3, #1835008
 106 002e 0F93     		str	r3, [sp, #60]
 174:Src/main.c    ****     {
 107              		.loc 1 174 0
 108 0030 06A8     		add	r0, sp, #24
 109 0032 FFF7FEFF 		bl	HAL_RCC_OscConfig
 110              	.LVL1:
 180:Src/main.c    ****     RCC_ClkInitStruct.SYSCLKSource = RCC_SYSCLKSOURCE_PLLCLK;
 111              		.loc 1 180 0
 112 0036 0F23     		movs	r3, #15
 113 0038 0193     		str	r3, [sp, #4]
 181:Src/main.c    ****     RCC_ClkInitStruct.AHBCLKDivider = RCC_SYSCLK_DIV1;
 114              		.loc 1 181 0
 115 003a 0295     		str	r5, [sp, #8]
 182:Src/main.c    ****     RCC_ClkInitStruct.APB1CLKDivider = RCC_HCLK_DIV2;
 116              		.loc 1 182 0
 117 003c 0394     		str	r4, [sp, #12]
 183:Src/main.c    ****     RCC_ClkInitStruct.APB2CLKDivider = RCC_HCLK_DIV1;
 118              		.loc 1 183 0
 119 003e 4FF48063 		mov	r3, #1024
 120 0042 0493     		str	r3, [sp, #16]
 184:Src/main.c    **** 
 121              		.loc 1 184 0
 122 0044 0594     		str	r4, [sp, #20]
 186:Src/main.c    ****     {
 123              		.loc 1 186 0
 124 0046 2946     		mov	r1, r5
 125 0048 01A8     		add	r0, sp, #4
 126 004a FFF7FEFF 		bl	HAL_RCC_ClockConfig
 127              	.LVL2:
 190:Src/main.c    **** 
 128              		.loc 1 190 0
 129 004e 11B0     		add	sp, sp, #68
 130              	.LCFI4:
 131              		.cfi_def_cfa_offset 12
ARM GAS  C:\Users\Thee\AppData\Local\Temp\ccsBUm0v.s 			page 7


 132              		@ sp needed
 133 0050 30BD     		pop	{r4, r5, pc}
 134              		.cfi_endproc
 135              	.LFE66:
 137              		.section	.text.Buffercmp,"ax",%progbits
 138              		.align	1
 139              		.global	Buffercmp
 140              		.syntax unified
 141              		.thumb
 142              		.thumb_func
 143              		.fpu softvfp
 145              	Buffercmp:
 146              	.LFB68:
 198:Src/main.c    **** 
 199:Src/main.c    **** uint8_t Buffercmp(const uint32_t *pBuffer,
 200:Src/main.c    ****                   uint32_t *pBuffer1, uint16_t BufferLength)
 201:Src/main.c    **** {
 147              		.loc 1 201 0
 148              		.cfi_startproc
 149              		@ args = 0, pretend = 0, frame = 0
 150              		@ frame_needed = 0, uses_anonymous_args = 0
 151              		@ link register save eliminated.
 152              	.LVL3:
 202:Src/main.c    ****     /* 数据长度递减 */
 203:Src/main.c    ****     while (BufferLength--)
 153              		.loc 1 203 0
 154 0000 531E     		subs	r3, r2, #1
 155 0002 9BB2     		uxth	r3, r3
 156              	.LVL4:
 157 0004 82B1     		cbz	r2, .L16
 201:Src/main.c    ****     /* 数据长度递减 */
 158              		.loc 1 201 0
 159 0006 10B4     		push	{r4}
 160              	.LCFI5:
 161              		.cfi_def_cfa_offset 4
 162              		.cfi_offset 4, -4
 163              	.L10:
 204:Src/main.c    ****     {
 205:Src/main.c    ****         /* 判断两个数据源是否对应相等 */
 206:Src/main.c    ****         if (*pBuffer != *pBuffer1)
 164              		.loc 1 206 0
 165 0008 0468     		ldr	r4, [r0]
 166 000a 0A68     		ldr	r2, [r1]
 167 000c 9442     		cmp	r4, r2
 168 000e 09D1     		bne	.L11
 207:Src/main.c    ****         {
 208:Src/main.c    ****             /* 对应数据源不相等马上退出函数，并返回0 */
 209:Src/main.c    ****             return 0;
 210:Src/main.c    ****         }
 211:Src/main.c    ****         /* 递增两个数据源的地址指针 */
 212:Src/main.c    ****         pBuffer++;
 169              		.loc 1 212 0
 170 0010 0430     		adds	r0, r0, #4
 171              	.LVL5:
 213:Src/main.c    ****         pBuffer1++;
 172              		.loc 1 213 0
 173 0012 0431     		adds	r1, r1, #4
ARM GAS  C:\Users\Thee\AppData\Local\Temp\ccsBUm0v.s 			page 8


 174              	.LVL6:
 203:Src/main.c    ****     {
 175              		.loc 1 203 0
 176 0014 1A46     		mov	r2, r3
 177 0016 013B     		subs	r3, r3, #1
 178              	.LVL7:
 179 0018 9BB2     		uxth	r3, r3
 180              	.LVL8:
 181 001a 002A     		cmp	r2, #0
 182 001c F4D1     		bne	.L10
 214:Src/main.c    ****     }
 215:Src/main.c    ****     /* 完成判断并且对应数据相对 */
 216:Src/main.c    ****     return 1;
 183              		.loc 1 216 0
 184 001e 0120     		movs	r0, #1
 185              	.LVL9:
 186              	.L9:
 217:Src/main.c    **** }
 187              		.loc 1 217 0
 188 0020 10BC     		pop	{r4}
 189              	.LCFI6:
 190              		.cfi_remember_state
 191              		.cfi_restore 4
 192              		.cfi_def_cfa_offset 0
 193 0022 7047     		bx	lr
 194              	.LVL10:
 195              	.L11:
 196              	.LCFI7:
 197              		.cfi_restore_state
 209:Src/main.c    ****         }
 198              		.loc 1 209 0
 199 0024 0020     		movs	r0, #0
 200              	.LVL11:
 201 0026 FBE7     		b	.L9
 202              	.LVL12:
 203              	.L16:
 204              	.LCFI8:
 205              		.cfi_def_cfa_offset 0
 206              		.cfi_restore 4
 216:Src/main.c    **** }
 207              		.loc 1 216 0
 208 0028 0120     		movs	r0, #1
 209              	.LVL13:
 210              		.loc 1 217 0
 211 002a 7047     		bx	lr
 212              		.cfi_endproc
 213              	.LFE68:
 215              		.section	.text.main,"ax",%progbits
 216              		.align	1
 217              		.global	main
 218              		.syntax unified
 219              		.thumb
 220              		.thumb_func
 221              		.fpu softvfp
 223              	main:
 224              	.LFB65:
  86:Src/main.c    ****     /* USER CODE BEGIN 1 */
ARM GAS  C:\Users\Thee\AppData\Local\Temp\ccsBUm0v.s 			page 9


 225              		.loc 1 86 0
 226              		.cfi_startproc
 227              		@ args = 0, pretend = 0, frame = 0
 228              		@ frame_needed = 0, uses_anonymous_args = 0
 229 0000 10B5     		push	{r4, lr}
 230              	.LCFI9:
 231              		.cfi_def_cfa_offset 8
 232              		.cfi_offset 4, -8
 233              		.cfi_offset 14, -4
 234              	.LVL14:
  95:Src/main.c    **** 
 235              		.loc 1 95 0
 236 0002 FFF7FEFF 		bl	HAL_Init
 237              	.LVL15:
 102:Src/main.c    **** 
 238              		.loc 1 102 0
 239 0006 FFF7FEFF 		bl	SystemClock_Config
 240              	.LVL16:
 109:Src/main.c    ****     MX_DMA_Init();
 241              		.loc 1 109 0
 242 000a FFF7FEFF 		bl	MX_GPIO_Init
 243              	.LVL17:
 110:Src/main.c    ****     /* USER CODE BEGIN 2 */
 244              		.loc 1 110 0
 245 000e FFF7FEFF 		bl	MX_DMA_Init
 246              	.LVL18:
 112:Src/main.c    **** 
 247              		.loc 1 112 0
 248 0012 2023     		movs	r3, #32
 249 0014 1E4A     		ldr	r2, .L26
 250 0016 1F49     		ldr	r1, .L26+4
 251 0018 1F48     		ldr	r0, .L26+8
 252 001a FFF7FEFF 		bl	HAL_DMA_Start
 253              	.LVL19:
 115:Src/main.c    ****     {
 254              		.loc 1 115 0
 255 001e C0B1     		cbz	r0, .L18
 256              	.LVL20:
 257              	.L19:
 120:Src/main.c    ****             Delay(0xFFFFFF);
 258              		.loc 1 120 0 discriminator 1
 259 0020 1E4C     		ldr	r4, .L26+12
 260 0022 4FF48023 		mov	r3, #262144
 261 0026 2361     		str	r3, [r4, #16]
 121:Src/main.c    ****             LED1_TOGGLE;
 262              		.loc 1 121 0 discriminator 1
 263 0028 6FF07F40 		mvn	r0, #-16777216
 264 002c FFF7FEFF 		bl	Delay
 265              	.LVL21:
 122:Src/main.c    ****             Delay(0xFFFFFF);
 266              		.loc 1 122 0 discriminator 1
 267 0030 E368     		ldr	r3, [r4, #12]
 268 0032 83F00403 		eor	r3, r3, #4
 269 0036 E360     		str	r3, [r4, #12]
 123:Src/main.c    ****         }
 270              		.loc 1 123 0 discriminator 1
 271 0038 6FF07F40 		mvn	r0, #-16777216
ARM GAS  C:\Users\Thee\AppData\Local\Temp\ccsBUm0v.s 			page 10


 272 003c FFF7FEFF 		bl	Delay
 273              	.LVL22:
 274 0040 EEE7     		b	.L19
 275              	.LVL23:
 276              	.L20:
 127:Src/main.c    ****     {
 277              		.loc 1 127 0 discriminator 2
 278 0042 174B     		ldr	r3, .L26+16
 279 0044 1B68     		ldr	r3, [r3]
 280 0046 13F0020F 		tst	r3, #2
 281 004a 0CBF     		ite	eq
 282 004c 0123     		moveq	r3, #1
 283 004e 0023     		movne	r3, #0
 284              	.L21:
 127:Src/main.c    ****     {
 285              		.loc 1 127 0 is_stmt 0 discriminator 4
 286 0050 6BB1     		cbz	r3, .L25
 287              	.L18:
 127:Src/main.c    ****     {
 288              		.loc 1 127 0 discriminator 5
 289 0052 114B     		ldr	r3, .L26+8
 290 0054 1A68     		ldr	r2, [r3]
 291 0056 134B     		ldr	r3, .L26+20
 292 0058 9A42     		cmp	r2, r3
 293 005a F2D9     		bls	.L20
 127:Src/main.c    ****     {
 294              		.loc 1 127 0 discriminator 1
 295 005c 03F56073 		add	r3, r3, #896
 296 0060 1B68     		ldr	r3, [r3]
 297 0062 13F0020F 		tst	r3, #2
 298 0066 0CBF     		ite	eq
 299 0068 0123     		moveq	r3, #1
 300 006a 0023     		movne	r3, #0
 301 006c F0E7     		b	.L21
 302              	.L25:
 131:Src/main.c    **** 
 303              		.loc 1 131 0 is_stmt 1
 304 006e 2022     		movs	r2, #32
 305 0070 0749     		ldr	r1, .L26
 306 0072 0848     		ldr	r0, .L26+4
 307              	.LVL24:
 308 0074 FFF7FEFF 		bl	Buffercmp
 309              	.LVL25:
 133:Src/main.c    ****     {
 310              		.loc 1 133 0
 311 0078 20B9     		cbnz	r0, .L22
 135:Src/main.c    ****     }
 312              		.loc 1 135 0
 313 007a 084B     		ldr	r3, .L26+12
 314 007c 4FF48022 		mov	r2, #262144
 315 0080 1A61     		str	r2, [r3, #16]
 316              	.L23:
 317 0082 FEE7     		b	.L23
 318              	.L22:
 139:Src/main.c    ****     }
 319              		.loc 1 139 0
 320 0084 054B     		ldr	r3, .L26+12
ARM GAS  C:\Users\Thee\AppData\Local\Temp\ccsBUm0v.s 			page 11


 321 0086 4FF40022 		mov	r2, #524288
 322 008a 1A61     		str	r2, [r3, #16]
 323 008c F9E7     		b	.L23
 324              	.L27:
 325 008e 00BF     		.align	2
 326              	.L26:
 327 0090 00000000 		.word	aDST_Buffer
 328 0094 00000000 		.word	.LANCHOR0
 329 0098 00000000 		.word	hdma_memtomem_dma1_channel1
 330 009c 00100140 		.word	1073811456
 331 00a0 00000240 		.word	1073872896
 332 00a4 80000240 		.word	1073873024
 333              		.cfi_endproc
 334              	.LFE65:
 336              		.section	.text.Error_Handler,"ax",%progbits
 337              		.align	1
 338              		.global	Error_Handler
 339              		.syntax unified
 340              		.thumb
 341              		.thumb_func
 342              		.fpu softvfp
 344              	Error_Handler:
 345              	.LFB69:
 218:Src/main.c    **** /* USER CODE END 4 */
 219:Src/main.c    **** 
 220:Src/main.c    **** /**
 221:Src/main.c    ****   * @brief  This function is executed in case of error occurrence.
 222:Src/main.c    ****   * @retval None
 223:Src/main.c    ****   */
 224:Src/main.c    **** void Error_Handler(void)
 225:Src/main.c    **** {
 346              		.loc 1 225 0
 347              		.cfi_startproc
 348              		@ args = 0, pretend = 0, frame = 0
 349              		@ frame_needed = 0, uses_anonymous_args = 0
 350              		@ link register save eliminated.
 226:Src/main.c    ****     /* USER CODE BEGIN Error_Handler_Debug */
 227:Src/main.c    ****     /* User can add his own implementation to report the HAL error return state */
 228:Src/main.c    **** 
 229:Src/main.c    ****     /* USER CODE END Error_Handler_Debug */
 230:Src/main.c    **** }
 351              		.loc 1 230 0
 352 0000 7047     		bx	lr
 353              		.cfi_endproc
 354              	.LFE69:
 356              		.comm	aDST_Buffer,128,4
 357              		.global	aSRC_Const_Buffer
 358              		.section	.rodata.aSRC_Const_Buffer,"a",%progbits
 359              		.align	2
 360              		.set	.LANCHOR0,. + 0
 363              	aSRC_Const_Buffer:
 364 0000 04030201 		.word	16909060
 365 0004 08070605 		.word	84281096
 366 0008 0C0B0A09 		.word	151653132
 367 000c 100F0E0D 		.word	219025168
 368 0010 14131211 		.word	286397204
 369 0014 18171615 		.word	353769240
ARM GAS  C:\Users\Thee\AppData\Local\Temp\ccsBUm0v.s 			page 12


 370 0018 1C1B1A19 		.word	421141276
 371 001c 201F1E1D 		.word	488513312
 372 0020 24232221 		.word	555885348
 373 0024 28272625 		.word	623257384
 374 0028 2C2B2A29 		.word	690629420
 375 002c 302F2E2D 		.word	758001456
 376 0030 34333231 		.word	825373492
 377 0034 38373635 		.word	892745528
 378 0038 3C3B3A39 		.word	960117564
 379 003c 403F3E3D 		.word	1027489600
 380 0040 44434241 		.word	1094861636
 381 0044 48474645 		.word	1162233672
 382 0048 4C4B4A49 		.word	1229605708
 383 004c 504F4E4D 		.word	1296977744
 384 0050 54535251 		.word	1364349780
 385 0054 58575655 		.word	1431721816
 386 0058 5C5B5A59 		.word	1499093852
 387 005c 605F5E5D 		.word	1566465888
 388 0060 64636261 		.word	1633837924
 389 0064 68676665 		.word	1701209960
 390 0068 6C6B6A69 		.word	1768581996
 391 006c 706F6E6D 		.word	1835954032
 392 0070 74737271 		.word	1903326068
 393 0074 78777675 		.word	1970698104
 394 0078 7C7B7A79 		.word	2038070140
 395 007c 807F7E7D 		.word	2105442176
 396              		.text
 397              	.Letext0:
 398              		.file 2 "d:\\gcc-arm-none-eabi-8-2018-q4-major-win32\\arm-none-eabi\\include\\machine\\_default_ty
 399              		.file 3 "d:\\gcc-arm-none-eabi-8-2018-q4-major-win32\\arm-none-eabi\\include\\sys\\_stdint.h"
 400              		.file 4 "Drivers/CMSIS/Include/core_cm3.h"
 401              		.file 5 "Drivers/CMSIS/Device/ST/STM32F1xx/Include/system_stm32f1xx.h"
 402              		.file 6 "Drivers/CMSIS/Device/ST/STM32F1xx/Include/stm32f103xe.h"
 403              		.file 7 "Drivers/CMSIS/Device/ST/STM32F1xx/Include/stm32f1xx.h"
 404              		.file 8 "Drivers/STM32F1xx_HAL_Driver/Inc/stm32f1xx_hal_def.h"
 405              		.file 9 "Drivers/STM32F1xx_HAL_Driver/Inc/stm32f1xx_hal_rcc.h"
 406              		.file 10 "Drivers/STM32F1xx_HAL_Driver/Inc/stm32f1xx_hal_rcc_ex.h"
 407              		.file 11 "Drivers/STM32F1xx_HAL_Driver/Inc/stm32f1xx_hal_dma.h"
 408              		.file 12 "Drivers/STM32F1xx_HAL_Driver/Inc/stm32f1xx_hal.h"
 409              		.file 13 "Inc/dma.h"
 410              		.file 14 "Inc/gpio.h"
ARM GAS  C:\Users\Thee\AppData\Local\Temp\ccsBUm0v.s 			page 13

